; ModuleID = '3/3307.c'
source_filename = "3/3307.c"
target datalayout = "e-m:e-p270:32:32-p271:32:32-p272:64:64-i64:64-f80:128-n8:16:32:64-S128"
target triple = "x86_64-pc-linux-gnu"

@.str = private unnamed_addr constant [5 x i8] c"%d%d\00", align 1
@.str.1 = private unnamed_addr constant [3 x i8] c"%d\00", align 1
@.str.2 = private unnamed_addr constant [4 x i8] c"yes\00", align 1
@.str.3 = private unnamed_addr constant [3 x i8] c"no\00", align 1

; Function Attrs: noinline nounwind uwtable
define dso_local i32 @main() #0 {
  %1 = alloca i32, align 4
  %2 = alloca i32, align 4
  %3 = alloca i32, align 4
  %4 = alloca i32, align 4
  %5 = alloca i32, align 4
  %6 = alloca [1000 x i32], align 16
  %7 = alloca i32, align 4
  %8 = alloca i32, align 4
  %9 = alloca i32, align 4
  %10 = alloca i32, align 4
  store i32 0, i32* %1, align 4
  store i32 0, i32* %8, align 4
  store i32 0, i32* %9, align 4
  %11 = call i32 (i8*, ...) @__isoc99_scanf(i8* getelementptr inbounds ([5 x i8], [5 x i8]* @.str, i64 0, i64 0), i32* %2, i32* %5)
  store i32 0, i32* %4, align 4
  br label %12

12:                                               ; preds = %21, %0
  %13 = load i32, i32* %4, align 4
  %14 = load i32, i32* %2, align 4
  %15 = icmp slt i32 %13, %14
  br i1 %15, label %16, label %24

16:                                               ; preds = %12
  %17 = load i32, i32* %4, align 4
  %18 = sext i32 %17 to i64
  %19 = getelementptr inbounds [1000 x i32], [1000 x i32]* %6, i64 0, i64 %18
  %20 = call i32 (i8*, ...) @__isoc99_scanf(i8* getelementptr inbounds ([3 x i8], [3 x i8]* @.str.1, i64 0, i64 0), i32* %19)
  br label %21

21:                                               ; preds = %16
  %22 = load i32, i32* %4, align 4
  %23 = add nsw i32 %22, 1
  store i32 %23, i32* %4, align 4
  br label %12

24:                                               ; preds = %12
  %25 = load i32, i32* %2, align 4
  %26 = sub nsw i32 %25, 1
  store i32 %26, i32* %4, align 4
  br label %27

27:                                               ; preds = %69, %24
  %28 = load i32, i32* %4, align 4
  %29 = icmp sge i32 %28, 0
  br i1 %29, label %30, label %72

30:                                               ; preds = %27
  store i32 0, i32* %3, align 4
  br label %31

31:                                               ; preds = %65, %30
  %32 = load i32, i32* %3, align 4
  %33 = load i32, i32* %4, align 4
  %34 = icmp slt i32 %32, %33
  br i1 %34, label %35, label %68

35:                                               ; preds = %31
  %36 = load i32, i32* %3, align 4
  %37 = sext i32 %36 to i64
  %38 = getelementptr inbounds [1000 x i32], [1000 x i32]* %6, i64 0, i64 %37
  %39 = load i32, i32* %38, align 4
  %40 = load i32, i32* %3, align 4
  %41 = add nsw i32 %40, 1
  %42 = sext i32 %41 to i64
  %43 = getelementptr inbounds [1000 x i32], [1000 x i32]* %6, i64 0, i64 %42
  %44 = load i32, i32* %43, align 4
  %45 = icmp sgt i32 %39, %44
  br i1 %45, label %46, label %64

46:                                               ; preds = %35
  %47 = load i32, i32* %3, align 4
  %48 = sext i32 %47 to i64
  %49 = getelementptr inbounds [1000 x i32], [1000 x i32]* %6, i64 0, i64 %48
  %50 = load i32, i32* %49, align 4
  store i32 %50, i32* %10, align 4
  %51 = load i32, i32* %3, align 4
  %52 = add nsw i32 %51, 1
  %53 = sext i32 %52 to i64
  %54 = getelementptr inbounds [1000 x i32], [1000 x i32]* %6, i64 0, i64 %53
  %55 = load i32, i32* %54, align 4
  %56 = load i32, i32* %3, align 4
  %57 = sext i32 %56 to i64
  %58 = getelementptr inbounds [1000 x i32], [1000 x i32]* %6, i64 0, i64 %57
  store i32 %55, i32* %58, align 4
  %59 = load i32, i32* %10, align 4
  %60 = load i32, i32* %3, align 4
  %61 = add nsw i32 %60, 1
  %62 = sext i32 %61 to i64
  %63 = getelementptr inbounds [1000 x i32], [1000 x i32]* %6, i64 0, i64 %62
  store i32 %59, i32* %63, align 4
  br label %64

64:                                               ; preds = %46, %35
  br label %65

65:                                               ; preds = %64
  %66 = load i32, i32* %3, align 4
  %67 = add nsw i32 %66, 1
  store i32 %67, i32* %3, align 4
  br label %31

68:                                               ; preds = %31
  br label %69

69:                                               ; preds = %68
  %70 = load i32, i32* %4, align 4
  %71 = add nsw i32 %70, -1
  store i32 %71, i32* %4, align 4
  br label %27

72:                                               ; preds = %27
  store i32 0, i32* %4, align 4
  br label %73

73:                                               ; preds = %87, %72
  %74 = load i32, i32* %4, align 4
  %75 = load i32, i32* %2, align 4
  %76 = icmp slt i32 %74, %75
  br i1 %76, label %77, label %90

77:                                               ; preds = %73
  %78 = load i32, i32* %4, align 4
  %79 = sext i32 %78 to i64
  %80 = getelementptr inbounds [1000 x i32], [1000 x i32]* %6, i64 0, i64 %79
  %81 = load i32, i32* %80, align 4
  %82 = load i32, i32* %5, align 4
  %83 = icmp sge i32 %81, %82
  br i1 %83, label %84, label %86

84:                                               ; preds = %77
  %85 = load i32, i32* %4, align 4
  store i32 %85, i32* %7, align 4
  br label %90

86:                                               ; preds = %77
  br label %87

87:                                               ; preds = %86
  %88 = load i32, i32* %4, align 4
  %89 = add nsw i32 %88, 1
  store i32 %89, i32* %4, align 4
  br label %73

90:                                               ; preds = %84, %73
  %91 = load i32, i32* %4, align 4
  %92 = load i32, i32* %2, align 4
  %93 = icmp sge i32 %91, %92
  br i1 %93, label %94, label %96

94:                                               ; preds = %90
  %95 = load i32, i32* %2, align 4
  store i32 %95, i32* %7, align 4
  br label %96

96:                                               ; preds = %94, %90
  store i32 0, i32* %4, align 4
  br label %97

97:                                               ; preds = %128, %96
  %98 = load i32, i32* %4, align 4
  %99 = load i32, i32* %7, align 4
  %100 = icmp slt i32 %98, %99
  br i1 %100, label %101, label %131

101:                                              ; preds = %97
  %102 = load i32, i32* %4, align 4
  %103 = add nsw i32 %102, 1
  store i32 %103, i32* %3, align 4
  br label %104

104:                                              ; preds = %124, %101
  %105 = load i32, i32* %3, align 4
  %106 = load i32, i32* %7, align 4
  %107 = icmp slt i32 %105, %106
  br i1 %107, label %108, label %127

108:                                              ; preds = %104
  %109 = load i32, i32* %4, align 4
  %110 = sext i32 %109 to i64
  %111 = getelementptr inbounds [1000 x i32], [1000 x i32]* %6, i64 0, i64 %110
  %112 = load i32, i32* %111, align 4
  %113 = load i32, i32* %3, align 4
  %114 = sext i32 %113 to i64
  %115 = getelementptr inbounds [1000 x i32], [1000 x i32]* %6, i64 0, i64 %114
  %116 = load i32, i32* %115, align 4
  %117 = add nsw i32 %112, %116
  store i32 %117, i32* %8, align 4
  %118 = load i32, i32* %8, align 4
  %119 = load i32, i32* %5, align 4
  %120 = icmp eq i32 %118, %119
  br i1 %120, label %121, label %123

121:                                              ; preds = %108
  %122 = call i32 (i8*, ...) @printf(i8* getelementptr inbounds ([4 x i8], [4 x i8]* @.str.2, i64 0, i64 0))
  store i32 0, i32* %1, align 4
  br label %138

123:                                              ; preds = %108
  store i32 0, i32* %8, align 4
  br label %124

124:                                              ; preds = %123
  %125 = load i32, i32* %3, align 4
  %126 = add nsw i32 %125, 1
  store i32 %126, i32* %3, align 4
  br label %104

127:                                              ; preds = %104
  br label %128

128:                                              ; preds = %127
  %129 = load i32, i32* %4, align 4
  %130 = add nsw i32 %129, 1
  store i32 %130, i32* %4, align 4
  br label %97

131:                                              ; preds = %97
  %132 = load i32, i32* %4, align 4
  %133 = load i32, i32* %7, align 4
  %134 = icmp sge i32 %132, %133
  br i1 %134, label %135, label %137

135:                                              ; preds = %131
  %136 = call i32 (i8*, ...) @printf(i8* getelementptr inbounds ([3 x i8], [3 x i8]* @.str.3, i64 0, i64 0))
  br label %137

137:                                              ; preds = %135, %131
  store i32 0, i32* %1, align 4
  br label %138

138:                                              ; preds = %137, %121
  %139 = load i32, i32* %1, align 4
  ret i32 %139
}

declare dso_local i32 @__isoc99_scanf(i8*, ...) #1

declare dso_local i32 @printf(i8*, ...) #1


!llvm.module.flags = !{!0}
!llvm.ident = !{!1}

!0 = !{i32 1, !"wchar_size", i32 4}
!1 = !{!"clang version 10.0.0-4ubuntu1 "}
